#include <math.h>
#include <stdio.h>
#include <stdlib.h>
#include <string.h>

int main(){
    int n,i,j,k=0,m;
    scanf("%d",&n);
    int sz[300],e[300];
    for(i=0;i<n;i++){
        scanf("%d",&(sz[i]));
    }
    for(i=0;i<n-1;i++){
         for(j=i+1;j<n;j++){
              if(sz[i]==sz[j]){
                      sz[j]=0;
              }
         }
    }
    for(i=0;i<n;i++){
         if(sz[i]!=0){
              e[k]=sz[i];
              k++;
          }
    }
    m=k;
    for(k=0;k<m-1;k++){
         printf("%d,",e[k]);
    }
    printf("%d",e[m-1]);
return 0;
}